target datalayout = "e-m:e-p270:32:32-p271:32:32-p272:64:64-i64:64-i128:128-f80:128-n8:16:32:64-S128"
target triple = "x86_64-pc-linux-gnu"

%struct.ArgoASFFileHeader = type { i32, i16, i16, i32, i32, [9 x i8] }
%struct.AVProbeData = type { ptr, ptr, i32, ptr }

; Function Attrs: nounwind uwtable
define internal i32 @argo_asf_is_known_version(ptr noundef %0) #0 {
  %2 = alloca ptr, align 8
  store ptr %0, ptr %2, align 8, !tbaa !4
  %3 = load ptr, ptr %2, align 8, !tbaa !4
  %4 = getelementptr inbounds nuw %struct.ArgoASFFileHeader, ptr %3, i32 0, i32 1
  %5 = load i16, ptr %4, align 4, !tbaa !16
  %6 = zext i16 %5 to i32
  %7 = icmp eq i32 %6, 1
  br i1 %7, label %8, label %14

8:                                                ; preds = %1
  %9 = load ptr, ptr %2, align 8, !tbaa !4
  %10 = getelementptr inbounds nuw %struct.ArgoASFFileHeader, ptr %9, i32 0, i32 2
  %11 = load i16, ptr %10, align 2, !tbaa !17
  %12 = zext i16 %11 to i32
  %13 = icmp eq i32 %12, 1
  br i1 %13, label %40, label %14

14:                                               ; preds = %8, %1
  %15 = load ptr, ptr %2, align 8, !tbaa !4
  %16 = getelementptr inbounds nuw %struct.ArgoASFFileHeader, ptr %15, i32 0, i32 1
  %17 = load i16, ptr %16, align 4, !tbaa !16
  %18 = zext i16 %17 to i32
  %19 = icmp eq i32 %18, 1
  br i1 %19, label %20, label %26

20:                                               ; preds = %14
  %21 = load ptr, ptr %2, align 8, !tbaa !4
  %22 = getelementptr inbounds nuw %struct.ArgoASFFileHeader, ptr %21, i32 0, i32 2
  %23 = load i16, ptr %22, align 2, !tbaa !17
  %24 = zext i16 %23 to i32
  %25 = icmp eq i32 %24, 2
  br i1 %25, label %40, label %26

26:                                               ; preds = %20, %14
  %27 = load ptr, ptr %2, align 8, !tbaa !4
  %28 = getelementptr inbounds nuw %struct.ArgoASFFileHeader, ptr %27, i32 0, i32 1
  %29 = load i16, ptr %28, align 4, !tbaa !16
  %30 = zext i16 %29 to i32
  %31 = icmp eq i32 %30, 2
  br i1 %31, label %32, label %38

32:                                               ; preds = %26
  %33 = load ptr, ptr %2, align 8, !tbaa !4
  %34 = getelementptr inbounds nuw %struct.ArgoASFFileHeader, ptr %33, i32 0, i32 2
  %35 = load i16, ptr %34, align 2, !tbaa !17
  %36 = zext i16 %35 to i32
  %37 = icmp eq i32 %36, 1
  br label %38

38:                                               ; preds = %32, %26
  %39 = phi i1 [ false, %26 ], [ %37, %32 ]
  br label %40

40:                                               ; preds = %38, %20, %8
  %41 = phi i1 [ true, %20 ], [ true, %8 ], [ %39, %38 ]
  %42 = zext i1 %41 to i32
  ret i32 %42
}

; Function Attrs: nounwind uwtable
define void @ff_argo_asf_parse_file_header(ptr noundef %0, ptr noundef %1) #0 {
  %3 = alloca ptr, align 8
  %4 = alloca ptr, align 8
  store ptr %0, ptr %3, align 8, !tbaa !4
  store ptr %1, ptr %4, align 8, !tbaa !9
  %5 = load ptr, ptr %4, align 8, !tbaa !9
  %6 = getelementptr inbounds i8, ptr %5, i64 0
  %7 = load i32, ptr %6, align 1, !tbaa !11
  %8 = load ptr, ptr %3, align 8, !tbaa !4
  %9 = getelementptr inbounds nuw %struct.ArgoASFFileHeader, ptr %8, i32 0, i32 0
  store i32 %7, ptr %9, align 4, !tbaa !12
  %10 = load ptr, ptr %4, align 8, !tbaa !9
  %11 = getelementptr inbounds i8, ptr %10, i64 4
  %12 = load i16, ptr %11, align 1, !tbaa !11
  %13 = load ptr, ptr %3, align 8, !tbaa !4
  %14 = getelementptr inbounds nuw %struct.ArgoASFFileHeader, ptr %13, i32 0, i32 1
  store i16 %12, ptr %14, align 4, !tbaa !16
  %15 = load ptr, ptr %4, align 8, !tbaa !9
  %16 = getelementptr inbounds i8, ptr %15, i64 6
  %17 = load i16, ptr %16, align 1, !tbaa !11
  %18 = load ptr, ptr %3, align 8, !tbaa !4
  %19 = getelementptr inbounds nuw %struct.ArgoASFFileHeader, ptr %18, i32 0, i32 2
  store i16 %17, ptr %19, align 2, !tbaa !17
  %20 = load ptr, ptr %4, align 8, !tbaa !9
  %21 = getelementptr inbounds i8, ptr %20, i64 8
  %22 = load i32, ptr %21, align 1, !tbaa !11
  %23 = load ptr, ptr %3, align 8, !tbaa !4
  %24 = getelementptr inbounds nuw %struct.ArgoASFFileHeader, ptr %23, i32 0, i32 3
  store i32 %22, ptr %24, align 4, !tbaa !18
  %25 = load ptr, ptr %4, align 8, !tbaa !9
  %26 = getelementptr inbounds i8, ptr %25, i64 12
  %27 = load i32, ptr %26, align 1, !tbaa !11
  %28 = load ptr, ptr %3, align 8, !tbaa !4
  %29 = getelementptr inbounds nuw %struct.ArgoASFFileHeader, ptr %28, i32 0, i32 4
  store i32 %27, ptr %29, align 4, !tbaa !19
  %30 = load ptr, ptr %3, align 8, !tbaa !4
  %31 = getelementptr inbounds nuw %struct.ArgoASFFileHeader, ptr %30, i32 0, i32 5
  %32 = getelementptr inbounds [9 x i8], ptr %31, i64 0, i64 0
  %33 = load ptr, ptr %4, align 8, !tbaa !9
  %34 = getelementptr inbounds i8, ptr %33, i64 16
  call void @llvm.memcpy.p0.p0.i64(ptr align 4 %32, ptr align 1 %34, i64 8, i1 false)
  %35 = load ptr, ptr %3, align 8, !tbaa !4
  %36 = getelementptr inbounds nuw %struct.ArgoASFFileHeader, ptr %35, i32 0, i32 5
  %37 = getelementptr inbounds [9 x i8], ptr %36, i64 0, i64 8
  store i8 0, ptr %37, align 4, !tbaa !11
  ret void
}

; Function Attrs: nounwind uwtable
define internal i32 @argo_asf_probe(ptr noundef %0) #0 {
  %2 = alloca i32, align 4
  %3 = alloca ptr, align 8
  %4 = alloca %struct.ArgoASFFileHeader, align 4
  %5 = alloca i32, align 4
  store ptr %0, ptr %3, align 8, !tbaa !62
  call void @llvm.lifetime.start.p0(i64 28, ptr %4) #6
  br label %6

6:                                                ; preds = %1
  br label %7

7:                                                ; preds = %6
  br label %8

8:                                                ; preds = %7
  %9 = load ptr, ptr %3, align 8, !tbaa !62
  %10 = getelementptr inbounds nuw %struct.AVProbeData, ptr %9, i32 0, i32 1
  %11 = load ptr, ptr %10, align 8, !tbaa !64
  call void @ff_argo_asf_parse_file_header(ptr noundef %4, ptr noundef %11)
  %12 = getelementptr inbounds nuw %struct.ArgoASFFileHeader, ptr %4, i32 0, i32 0
  %13 = load i32, ptr %12, align 4, !tbaa !12
  %14 = icmp ne i32 %13, 4608833
  br i1 %14, label %15, label %16

15:                                               ; preds = %8
  store i32 0, ptr %2, align 4
  store i32 1, ptr %5, align 4
  br label %21

16:                                               ; preds = %8
  %17 = call i32 @argo_asf_is_known_version(ptr noundef %4)
  %18 = icmp ne i32 %17, 0
  br i1 %18, label %20, label %19

19:                                               ; preds = %16
  store i32 25, ptr %2, align 4
  store i32 1, ptr %5, align 4
  br label %21

20:                                               ; preds = %16
  store i32 51, ptr %2, align 4
  store i32 1, ptr %5, align 4
  br label %21

21:                                               ; preds = %20, %19, %15
  call void @llvm.lifetime.end.p0(i64 28, ptr %4) #6
  %22 = load i32, ptr %2, align 4
  ret i32 %22
}