; Function Attrs: mustprogress nofree norecurse nosync nounwind willreturn memory(read, inaccessiblemem: none) uwtable
define internal range(i32 0, 52) i32 @argo_asf_probe(ptr noundef readonly captures(none) %0) #5 {
  %2 = getelementptr inbounds nuw i8, ptr %0, i64 8
  %3 = load ptr, ptr %2, align 8, !tbaa !49
  %4 = load i32, ptr %3, align 1, !tbaa !4
  %5 = getelementptr inbounds nuw i8, ptr %3, i64 6
  %6 = load i16, ptr %5, align 1, !tbaa !4
  %.fr = freeze i16 %6
  %.not = icmp eq i32 %4, 4608833
  br i1 %.not, label %7, label %argo_asf_is_known_version.exit.thread

7:                                                ; preds = %1
  %8 = getelementptr inbounds nuw i8, ptr %3, i64 4
  %9 = load i16, ptr %8, align 1, !tbaa !4
  switch i16 %9, label %argo_asf_is_known_version.exit.thread [
    i16 1, label %argo_asf_is_known_version.exit
    i16 2, label %10
  ]

10:                                               ; preds = %7
  %11 = icmp eq i16 %.fr, 1
  br i1 %11, label %12, label %argo_asf_is_known_version.exit.thread

argo_asf_is_known_version.exit:                   ; preds = %7
  %.6.val.off.i = add i16 %.fr, -1
  %switch.i = icmp ult i16 %.6.val.off.i, 2
  br i1 %switch.i, label %12, label %argo_asf_is_known_version.exit.thread

12:                                               ; preds = %10, %argo_asf_is_known_version.exit
  br label %argo_asf_is_known_version.exit.thread

argo_asf_is_known_version.exit.thread:            ; preds = %7, %12, %argo_asf_is_known_version.exit, %10, %1
  %.0 = phi i32 [ 0, %1 ], [ 51, %12 ], [ 25, %argo_asf_is_known_version.exit ], [ 25, %10 ], [ 25, %7 ]
  ret i32 %.0
}